; ModuleID = '55/520.c'
source_filename = "55/520.c"
target datalayout = "e-m:e-p270:32:32-p271:32:32-p272:64:64-i64:64-f80:128-n8:16:32:64-S128"
target triple = "x86_64-pc-linux-gnu"

@.str = private unnamed_addr constant [7 x i8] c"%d%s%d\00", align 1
@.str.1 = private unnamed_addr constant [2 x i8] c"0\00", align 1
@.str.2 = private unnamed_addr constant [3 x i8] c"%d\00", align 1
@.str.3 = private unnamed_addr constant [4 x i8] c"%s\0A\00", align 1

; Function Attrs: noinline nounwind uwtable
define dso_local i32 @main() #0 {
  %1 = alloca i32, align 4
  %2 = alloca i32, align 4
  %3 = alloca i32, align 4
  %4 = alloca [300 x i32], align 16
  %5 = alloca i32, align 4
  %6 = alloca i32, align 4
  %7 = alloca i32, align 4
  %8 = alloca i32, align 4
  %9 = alloca [300 x i32], align 16
  %10 = alloca i64, align 8
  %11 = alloca [300 x i8], align 16
  %12 = alloca [300 x i8], align 16
  store i32 0, i32* %1, align 4
  %13 = bitcast [300 x i32]* %4 to i8*
  call void @llvm.memset.p0i8.i64(i8* align 16 %13, i8 0, i64 1200, i1 false)
  store i32 0, i32* %5, align 4
  store i32 0, i32* %6, align 4
  store i32 0, i32* %7, align 4
  %14 = bitcast [300 x i32]* %9 to i8*
  call void @llvm.memset.p0i8.i64(i8* align 16 %14, i8 0, i64 1200, i1 false)
  store i64 0, i64* %10, align 8
  %15 = bitcast [300 x i8]* %11 to i8*
  call void @llvm.memset.p0i8.i64(i8* align 16 %15, i8 0, i64 300, i1 false)
  %16 = bitcast [300 x i8]* %12 to i8*
  call void @llvm.memset.p0i8.i64(i8* align 16 %16, i8 0, i64 300, i1 false)
  %17 = getelementptr inbounds [300 x i8], [300 x i8]* %11, i64 0, i64 0
  %18 = call i32 (i8*, ...) @__isoc99_scanf(i8* getelementptr inbounds ([7 x i8], [7 x i8]* @.str, i64 0, i64 0), i32* %2, i8* %17, i32* %3)
  %19 = getelementptr inbounds [300 x i8], [300 x i8]* %11, i64 0, i64 0
  %20 = call i64 @strlen(i8* %19) #5
  %21 = trunc i64 %20 to i32
  store i32 %21, i32* %8, align 4
  store i32 0, i32* %5, align 4
  br label %22

22:                                               ; preds = %119, %0
  %23 = load i32, i32* %5, align 4
  %24 = load i32, i32* %8, align 4
  %25 = icmp slt i32 %23, %24
  br i1 %25, label %26, label %122

26:                                               ; preds = %22
  %27 = load i32, i32* %5, align 4
  %28 = sext i32 %27 to i64
  %29 = getelementptr inbounds [300 x i8], [300 x i8]* %11, i64 0, i64 %28
  %30 = load i8, i8* %29, align 1
  %31 = sext i8 %30 to i32
  %32 = icmp sge i32 %31, 48
  br i1 %32, label %33, label %50

33:                                               ; preds = %26
  %34 = load i32, i32* %5, align 4
  %35 = sext i32 %34 to i64
  %36 = getelementptr inbounds [300 x i8], [300 x i8]* %11, i64 0, i64 %35
  %37 = load i8, i8* %36, align 1
  %38 = sext i8 %37 to i32
  %39 = icmp sle i32 %38, 57
  br i1 %39, label %40, label %50

40:                                               ; preds = %33
  %41 = load i32, i32* %5, align 4
  %42 = sext i32 %41 to i64
  %43 = getelementptr inbounds [300 x i8], [300 x i8]* %11, i64 0, i64 %42
  %44 = load i8, i8* %43, align 1
  %45 = sext i8 %44 to i32
  %46 = sub nsw i32 %45, 48
  %47 = load i32, i32* %5, align 4
  %48 = sext i32 %47 to i64
  %49 = getelementptr inbounds [300 x i32], [300 x i32]* %4, i64 0, i64 %48
  store i32 %46, i32* %49, align 4
  br label %100

50:                                               ; preds = %33, %26
  %51 = load i32, i32* %5, align 4
  %52 = sext i32 %51 to i64
  %53 = getelementptr inbounds [300 x i8], [300 x i8]* %11, i64 0, i64 %52
  %54 = load i8, i8* %53, align 1
  %55 = sext i8 %54 to i32
  %56 = icmp sge i32 %55, 65
  br i1 %56, label %57, label %74

57:                                               ; preds = %50
  %58 = load i32, i32* %5, align 4
  %59 = sext i32 %58 to i64
  %60 = getelementptr inbounds [300 x i8], [300 x i8]* %11, i64 0, i64 %59
  %61 = load i8, i8* %60, align 1
  %62 = sext i8 %61 to i32
  %63 = icmp sle i32 %62, 90
  br i1 %63, label %64, label %74

64:                                               ; preds = %57
  %65 = load i32, i32* %5, align 4
  %66 = sext i32 %65 to i64
  %67 = getelementptr inbounds [300 x i8], [300 x i8]* %11, i64 0, i64 %66
  %68 = load i8, i8* %67, align 1
  %69 = sext i8 %68 to i32
  %70 = sub nsw i32 %69, 55
  %71 = load i32, i32* %5, align 4
  %72 = sext i32 %71 to i64
  %73 = getelementptr inbounds [300 x i32], [300 x i32]* %4, i64 0, i64 %72
  store i32 %70, i32* %73, align 4
  br label %99

74:                                               ; preds = %57, %50
  %75 = load i32, i32* %5, align 4
  %76 = sext i32 %75 to i64
  %77 = getelementptr inbounds [300 x i8], [300 x i8]* %11, i64 0, i64 %76
  %78 = load i8, i8* %77, align 1
  %79 = sext i8 %78 to i32
  %80 = icmp sge i32 %79, 97
  br i1 %80, label %81, label %98

81:                                               ; preds = %74
  %82 = load i32, i32* %5, align 4
  %83 = sext i32 %82 to i64
  %84 = getelementptr inbounds [300 x i8], [300 x i8]* %11, i64 0, i64 %83
  %85 = load i8, i8* %84, align 1
  %86 = sext i8 %85 to i32
  %87 = icmp sle i32 %86, 122
  br i1 %87, label %88, label %98

88:                                               ; preds = %81
  %89 = load i32, i32* %5, align 4
  %90 = sext i32 %89 to i64
  %91 = getelementptr inbounds [300 x i8], [300 x i8]* %11, i64 0, i64 %90
  %92 = load i8, i8* %91, align 1
  %93 = sext i8 %92 to i32
  %94 = sub nsw i32 %93, 87
  %95 = load i32, i32* %5, align 4
  %96 = sext i32 %95 to i64
  %97 = getelementptr inbounds [300 x i32], [300 x i32]* %4, i64 0, i64 %96
  store i32 %94, i32* %97, align 4
  br label %98

98:                                               ; preds = %88, %81, %74
  br label %99

99:                                               ; preds = %98, %64
  br label %100

100:                                              ; preds = %99, %40
  %101 = load i64, i64* %10, align 8
  %102 = sitofp i64 %101 to double
  %103 = load i32, i32* %5, align 4
  %104 = sext i32 %103 to i64
  %105 = getelementptr inbounds [300 x i32], [300 x i32]* %4, i64 0, i64 %104
  %106 = load i32, i32* %105, align 4
  %107 = sitofp i32 %106 to double
  %108 = load i32, i32* %2, align 4
  %109 = sitofp i32 %108 to double
  %110 = load i32, i32* %8, align 4
  %111 = load i32, i32* %5, align 4
  %112 = sub nsw i32 %110, %111
  %113 = sub nsw i32 %112, 1
  %114 = sitofp i32 %113 to double
  %115 = call double @pow(double %109, double %114) #6
  %116 = fmul double %107, %115
  %117 = fadd double %102, %116
  %118 = fptosi double %117 to i64
  store i64 %118, i64* %10, align 8
  br label %119

119:                                              ; preds = %100
  %120 = load i32, i32* %5, align 4
  %121 = add nsw i32 %120, 1
  store i32 %121, i32* %5, align 4
  br label %22

122:                                              ; preds = %22
  %123 = load i64, i64* %10, align 8
  %124 = icmp eq i64 %123, 0
  br i1 %124, label %125, label %127

125:                                              ; preds = %122
  %126 = call i32 (i8*, ...) @printf(i8* getelementptr inbounds ([2 x i8], [2 x i8]* @.str.1, i64 0, i64 0))
  br label %127

127:                                              ; preds = %125, %122
  %128 = load i32, i32* %3, align 4
  %129 = icmp eq i32 %128, 10
  br i1 %129, label %130, label %133

130:                                              ; preds = %127
  %131 = load i64, i64* %10, align 8
  %132 = call i32 (i8*, ...) @printf(i8* getelementptr inbounds ([3 x i8], [3 x i8]* @.str.2, i64 0, i64 0), i64 %131)
  br label %226

133:                                              ; preds = %127
  br label %134

134:                                              ; preds = %137, %133
  %135 = load i64, i64* %10, align 8
  %136 = icmp sgt i64 %135, 0
  br i1 %136, label %137, label %152

137:                                              ; preds = %134
  %138 = load i64, i64* %10, align 8
  %139 = load i32, i32* %3, align 4
  %140 = sext i32 %139 to i64
  %141 = srem i64 %138, %140
  %142 = trunc i64 %141 to i32
  %143 = load i32, i32* %6, align 4
  %144 = sext i32 %143 to i64
  %145 = getelementptr inbounds [300 x i32], [300 x i32]* %9, i64 0, i64 %144
  store i32 %142, i32* %145, align 4
  %146 = load i64, i64* %10, align 8
  %147 = load i32, i32* %3, align 4
  %148 = sext i32 %147 to i64
  %149 = sdiv i64 %146, %148
  store i64 %149, i64* %10, align 8
  %150 = load i32, i32* %6, align 4
  %151 = add nsw i32 %150, 1
  store i32 %151, i32* %6, align 4
  br label %134

152:                                              ; preds = %134
  store i32 0, i32* %7, align 4
  br label %153

153:                                              ; preds = %220, %152
  %154 = load i32, i32* %7, align 4
  %155 = load i32, i32* %6, align 4
  %156 = icmp slt i32 %154, %155
  br i1 %156, label %157, label %223

157:                                              ; preds = %153
  %158 = load i32, i32* %6, align 4
  %159 = load i32, i32* %7, align 4
  %160 = sub nsw i32 %158, %159
  %161 = sub nsw i32 %160, 1
  %162 = sext i32 %161 to i64
  %163 = getelementptr inbounds [300 x i32], [300 x i32]* %9, i64 0, i64 %162
  %164 = load i32, i32* %163, align 4
  %165 = icmp sge i32 %164, 0
  br i1 %165, label %166, label %188

166:                                              ; preds = %157
  %167 = load i32, i32* %6, align 4
  %168 = load i32, i32* %7, align 4
  %169 = sub nsw i32 %167, %168
  %170 = sub nsw i32 %169, 1
  %171 = sext i32 %170 to i64
  %172 = getelementptr inbounds [300 x i32], [300 x i32]* %9, i64 0, i64 %171
  %173 = load i32, i32* %172, align 4
  %174 = icmp sle i32 %173, 9
  br i1 %174, label %175, label %188

175:                                              ; preds = %166
  %176 = load i32, i32* %6, align 4
  %177 = load i32, i32* %7, align 4
  %178 = sub nsw i32 %176, %177
  %179 = sub nsw i32 %178, 1
  %180 = sext i32 %179 to i64
  %181 = getelementptr inbounds [300 x i32], [300 x i32]* %9, i64 0, i64 %180
  %182 = load i32, i32* %181, align 4
  %183 = add nsw i32 %182, 48
  %184 = trunc i32 %183 to i8
  %185 = load i32, i32* %7, align 4
  %186 = sext i32 %185 to i64
  %187 = getelementptr inbounds [300 x i8], [300 x i8]* %12, i64 0, i64 %186
  store i8 %184, i8* %187, align 1
  br label %219

188:                                              ; preds = %166, %157
  %189 = load i32, i32* %6, align 4
  %190 = load i32, i32* %7, align 4
  %191 = sub nsw i32 %189, %190
  %192 = sub nsw i32 %191, 1
  %193 = sext i32 %192 to i64
  %194 = getelementptr inbounds [300 x i32], [300 x i32]* %9, i64 0, i64 %193
  %195 = load i32, i32* %194, align 4
  %196 = icmp sge i32 %195, 10
  br i1 %196, label %197, label %218

197:                                              ; preds = %188
  %198 = load i32, i32* %6, align 4
  %199 = load i32, i32* %7, align 4
  %200 = sub nsw i32 %198, %199
  %201 = sext i32 %200 to i64
  %202 = getelementptr inbounds [300 x i32], [300 x i32]* %9, i64 0, i64 %201
  %203 = load i32, i32* %202, align 4
  %204 = icmp sle i32 %203, 35
  br i1 %204, label %205, label %218

205:                                              ; preds = %197
  %206 = load i32, i32* %6, align 4
  %207 = load i32, i32* %7, align 4
  %208 = sub nsw i32 %206, %207
  %209 = sub nsw i32 %208, 1
  %210 = sext i32 %209 to i64
  %211 = getelementptr inbounds [300 x i32], [300 x i32]* %9, i64 0, i64 %210
  %212 = load i32, i32* %211, align 4
  %213 = add nsw i32 %212, 55
  %214 = trunc i32 %213 to i8
  %215 = load i32, i32* %7, align 4
  %216 = sext i32 %215 to i64
  %217 = getelementptr inbounds [300 x i8], [300 x i8]* %12, i64 0, i64 %216
  store i8 %214, i8* %217, align 1
  br label %218

218:                                              ; preds = %205, %197, %188
  br label %219

219:                                              ; preds = %218, %175
  br label %220

220:                                              ; preds = %219
  %221 = load i32, i32* %7, align 4
  %222 = add nsw i32 %221, 1
  store i32 %222, i32* %7, align 4
  br label %153

223:                                              ; preds = %153
  %224 = getelementptr inbounds [300 x i8], [300 x i8]* %12, i64 0, i64 0
  %225 = call i32 (i8*, ...) @printf(i8* getelementptr inbounds ([4 x i8], [4 x i8]* @.str.3, i64 0, i64 0), i8* %224)
  br label %226

226:                                              ; preds = %223, %130
  ret i32 0
}

; Function Attrs: argmemonly nounwind willreturn
declare void @llvm.memset.p0i8.i64(i8* nocapture writeonly, i8, i64, i1 immarg) #1

declare dso_local i32 @__isoc99_scanf(i8*, ...) #2

; Function Attrs: nounwind readonly
declare dso_local i64 @strlen(i8*) #3

; Function Attrs: nounwind
declare dso_local double @pow(double, double) #4

declare dso_local i32 @printf(i8*, ...) #2


!llvm.module.flags = !{!0}
!llvm.ident = !{!1}

!0 = !{i32 1, !"wchar_size", i32 4}
!1 = !{!"clang version 10.0.0-4ubuntu1 "}
